; Function Attrs: nounwind uwtable
define void @GC_set_finalizer_notifier(ptr noundef %0) local_unnamed_addr #1 {
  %.b1 = load i1, ptr @GC_need_to_lock, align 4
  br i1 %.b1, label %2, label %GC_lock.exit.thread

GC_lock.exit.thread:                              ; preds = %1
  store ptr %0, ptr @GC_finalizer_notifier, align 8
  br label %21

2:                                                ; preds = %1
  %3 = tail call i32 @pthread_mutex_trylock(ptr noundef nonnull @GC_allocate_ml) #41
  %.not = icmp eq i32 %3, 0
  br i1 %.not, label %GC_lock.exit, label %4

4:                                                ; preds = %2
  %5 = load i32, ptr @GC_nprocs, align 4
  %6 = icmp eq i32 %5, 1
  br i1 %6, label %GC_generic_lock.exit.sink.split.i, label %7

7:                                                ; preds = %4
  %8 = load atomic volatile i8, ptr @GC_collecting monotonic, align 1
  %.not.i = icmp eq i8 %8, 0
  br i1 %.not.i, label %9, label %GC_generic_lock.exit.sink.split.i

9:                                                ; preds = %7
  %10 = tail call i32 @pthread_mutex_trylock(ptr noundef nonnull @GC_allocate_ml) #41
  %11 = icmp eq i32 %10, 0
  br i1 %11, label %GC_lock.exit, label %.preheader.i.i

.preheader.i.i:                                   ; preds = %9, %15
  %.079.i.i = phi i32 [ %16, %15 ], [ 1, %9 ]
  fence syncscope("singlethread") seq_cst
  %12 = tail call i32 @pthread_mutex_trylock(ptr noundef nonnull @GC_allocate_ml) #41
  switch i32 %12, label %13 [
    i32 0, label %GC_lock.exit
    i32 16, label %15
  ]

13:                                               ; preds = %.preheader.i.i
  %14 = load ptr, ptr @GC_on_abort, align 8
  tail call void %14(ptr noundef nonnull @.str.340) #41
  tail call void @abort() #47
  unreachable

15:                                               ; preds = %.preheader.i.i
  %16 = shl nuw nsw i32 %.079.i.i, 1
  %17 = icmp samesign ult i32 %.079.i.i, 65
  br i1 %17, label %.preheader.i.i, label %GC_generic_lock.exit.sink.split.i, !llvm.loop !4

GC_generic_lock.exit.sink.split.i:                ; preds = %15, %7, %4
  %18 = tail call i32 @pthread_mutex_lock(ptr noundef nonnull @GC_allocate_ml) #41
  br label %GC_lock.exit

GC_lock.exit:                                     ; preds = %.preheader.i.i, %GC_generic_lock.exit.sink.split.i, %9, %2
  %.b.pr = load i1, ptr @GC_need_to_lock, align 4
  store ptr %0, ptr @GC_finalizer_notifier, align 8
  br i1 %.b.pr, label %19, label %21

19:                                               ; preds = %GC_lock.exit
  %20 = tail call i32 @pthread_mutex_unlock(ptr noundef nonnull @GC_allocate_ml) #41
  br label %21

21:                                               ; preds = %GC_lock.exit.thread, %GC_lock.exit, %19
  ret void
}